; Function Attrs: mustprogress uwtable
define dso_local void @_ZN5cmsys17SystemInformationC2Ev(ptr noundef nonnull writeonly align 8 captures(none) dereferenceable(8) %0) unnamed_addr #3 align 2 personality ptr @__gxx_personality_v0 {
  %2 = tail call noalias noundef nonnull dereferenceable(464) ptr @_Znwm(i64 noundef 464) #32
  invoke void @_ZN5cmsys31SystemInformationImplementationC2Ev(ptr noundef nonnull align 8 dereferenceable(457) %2)
          to label %3 unwind label %4

3:                                                ; preds = %1
  store ptr %2, ptr %0, align 8, !tbaa !4
  ret void

4:                                                ; preds = %1
  %5 = landingpad { ptr, i32 }
          cleanup
  tail call void @_ZdlPvm(ptr noundef nonnull %2, i64 noundef 464) #33
  resume { ptr, i32 } %5
}